; Function Attrs: mustprogress nofree norecurse nosync nounwind null_pointer_is_valid sspstrong willreturn memory(argmem: read) uwtable
define internal range(i32 0, 2) i32 @spx_equal(ptr noundef readonly captures(none) %0, ptr noundef readonly captures(none) %1) #2 {
  %3 = load ptr, ptr %0, align 8
  %4 = load ptr, ptr %1, align 8
  %5 = icmp eq ptr %3, %4
  br i1 %5, label %6, label %18

6:                                                ; preds = %2
  %7 = getelementptr inbounds nuw i8, ptr %0, i64 8
  %8 = load i32, ptr %7, align 8
  %9 = getelementptr inbounds nuw i8, ptr %1, i64 8
  %10 = load i32, ptr %9, align 8
  %11 = icmp eq i32 %8, %10
  br i1 %11, label %12, label %18

12:                                               ; preds = %6
  %13 = getelementptr inbounds nuw i8, ptr %0, i64 12
  %14 = load i16, ptr %13, align 4
  %15 = getelementptr inbounds nuw i8, ptr %1, i64 12
  %16 = load i16, ptr %15, align 4
  %17 = icmp eq i16 %14, %16
  br i1 %17, label %19, label %18

18:                                               ; preds = %12, %6, %2
  br label %19

19:                                               ; preds = %12, %18
  %.0 = phi i32 [ 0, %18 ], [ 1, %12 ]
  ret i32 %.0
}